target datalayout = "e-m:e-p270:32:32-p271:32:32-p272:64:64-i64:64-i128:128-f80:128-n8:16:32:64-S128"
target triple = "x86_64-pc-linux-gnu"

%struct._object = type { %union.anon, ptr }
%union.anon = type { i64 }
%struct.PyVarObject = type { %struct._object, i64 }
%struct.dequeobject = type { %struct.PyVarObject, ptr, ptr, i64, i64, i64, i64, i64, [16 x ptr], ptr }
%struct.BLOCK = type { ptr, [64 x ptr], ptr }

@_Py_NoneStruct = external global %struct._object, align 8

; Function Attrs: inlinehint nounwind uwtable
define internal i64 @Py_SIZE(ptr noundef %0) #3 {
  %2 = alloca ptr, align 8
  store ptr %0, ptr %2, align 8, !tbaa !4
  %3 = load ptr, ptr %2, align 8, !tbaa !4
  %4 = getelementptr inbounds nuw %struct.PyVarObject, ptr %3, i32 0, i32 1
  %5 = load i64, ptr %4, align 8, !tbaa !72
  ret i64 %5
}

; Function Attrs: nounwind uwtable
define internal ptr @deque_reverse_impl(ptr noundef %0) #0 {
  %2 = alloca ptr, align 8
  %3 = alloca ptr, align 8
  %4 = alloca ptr, align 8
  %5 = alloca i64, align 8
  %6 = alloca i64, align 8
  %7 = alloca i64, align 8
  %8 = alloca ptr, align 8
  store ptr %0, ptr %2, align 8, !tbaa !43
  call void @llvm.lifetime.start.p0(i64 8, ptr %3) #7
  %9 = load ptr, ptr %2, align 8, !tbaa !43
  %10 = getelementptr inbounds nuw %struct.dequeobject, ptr %9, i32 0, i32 1
  %11 = load ptr, ptr %10, align 8, !tbaa !48
  store ptr %11, ptr %3, align 8, !tbaa !51
  call void @llvm.lifetime.start.p0(i64 8, ptr %4) #7
  %12 = load ptr, ptr %2, align 8, !tbaa !43
  %13 = getelementptr inbounds nuw %struct.dequeobject, ptr %12, i32 0, i32 2
  %14 = load ptr, ptr %13, align 8, !tbaa !49
  store ptr %14, ptr %4, align 8, !tbaa !51
  call void @llvm.lifetime.start.p0(i64 8, ptr %5) #7
  %15 = load ptr, ptr %2, align 8, !tbaa !43
  %16 = getelementptr inbounds nuw %struct.dequeobject, ptr %15, i32 0, i32 3
  %17 = load i64, ptr %16, align 8, !tbaa !56
  store i64 %17, ptr %5, align 8, !tbaa !24
  call void @llvm.lifetime.start.p0(i64 8, ptr %6) #7
  %18 = load ptr, ptr %2, align 8, !tbaa !43
  %19 = getelementptr inbounds nuw %struct.dequeobject, ptr %18, i32 0, i32 4
  %20 = load i64, ptr %19, align 8, !tbaa !61
  store i64 %20, ptr %6, align 8, !tbaa !24
  call void @llvm.lifetime.start.p0(i64 8, ptr %7) #7
  %21 = load ptr, ptr %2, align 8, !tbaa !43
  %22 = call i64 @Py_SIZE(ptr noundef %21)
  %23 = ashr i64 %22, 1
  store i64 %23, ptr %7, align 8, !tbaa !24
  call void @llvm.lifetime.start.p0(i64 8, ptr %8) #7
  br label %24

24:                                               ; preds = %65, %1
  %25 = load i64, ptr %7, align 8, !tbaa !24
  %26 = add i64 %25, -1
  store i64 %26, ptr %7, align 8, !tbaa !24
  %27 = icmp sge i64 %26, 0
  br i1 %27, label %28, label %66

28:                                               ; preds = %24
  %29 = load ptr, ptr %3, align 8, !tbaa !51
  %30 = getelementptr inbounds nuw %struct.BLOCK, ptr %29, i32 0, i32 1
  %31 = load i64, ptr %5, align 8, !tbaa !24
  %32 = getelementptr [64 x ptr], ptr %30, i64 0, i64 %31
  %33 = load ptr, ptr %32, align 8, !tbaa !4
  store ptr %33, ptr %8, align 8, !tbaa !4
  %34 = load ptr, ptr %4, align 8, !tbaa !51
  %35 = getelementptr inbounds nuw %struct.BLOCK, ptr %34, i32 0, i32 1
  %36 = load i64, ptr %6, align 8, !tbaa !24
  %37 = getelementptr [64 x ptr], ptr %35, i64 0, i64 %36
  %38 = load ptr, ptr %37, align 8, !tbaa !4
  %39 = load ptr, ptr %3, align 8, !tbaa !51
  %40 = getelementptr inbounds nuw %struct.BLOCK, ptr %39, i32 0, i32 1
  %41 = load i64, ptr %5, align 8, !tbaa !24
  %42 = getelementptr [64 x ptr], ptr %40, i64 0, i64 %41
  store ptr %38, ptr %42, align 8, !tbaa !4
  %43 = load ptr, ptr %8, align 8, !tbaa !4
  %44 = load ptr, ptr %4, align 8, !tbaa !51
  %45 = getelementptr inbounds nuw %struct.BLOCK, ptr %44, i32 0, i32 1
  %46 = load i64, ptr %6, align 8, !tbaa !24
  %47 = getelementptr [64 x ptr], ptr %45, i64 0, i64 %46
  store ptr %43, ptr %47, align 8, !tbaa !4
  %48 = load i64, ptr %5, align 8, !tbaa !24
  %49 = add i64 %48, 1
  store i64 %49, ptr %5, align 8, !tbaa !24
  %50 = load i64, ptr %5, align 8, !tbaa !24
  %51 = icmp eq i64 %50, 64
  br i1 %51, label %52, label %56

52:                                               ; preds = %28
  %53 = load ptr, ptr %3, align 8, !tbaa !51
  %54 = getelementptr inbounds nuw %struct.BLOCK, ptr %53, i32 0, i32 2
  %55 = load ptr, ptr %54, align 8, !tbaa !58
  store ptr %55, ptr %3, align 8, !tbaa !51
  store i64 0, ptr %5, align 8, !tbaa !24
  br label %56

56:                                               ; preds = %52, %28
  %57 = load i64, ptr %6, align 8, !tbaa !24
  %58 = add i64 %57, -1
  store i64 %58, ptr %6, align 8, !tbaa !24
  %59 = load i64, ptr %6, align 8, !tbaa !24
  %60 = icmp slt i64 %59, 0
  br i1 %60, label %61, label %65

61:                                               ; preds = %56
  %62 = load ptr, ptr %4, align 8, !tbaa !51
  %63 = getelementptr inbounds nuw %struct.BLOCK, ptr %62, i32 0, i32 0
  %64 = load ptr, ptr %63, align 8, !tbaa !73
  store ptr %64, ptr %4, align 8, !tbaa !51
  store i64 63, ptr %6, align 8, !tbaa !24
  br label %65

65:                                               ; preds = %61, %56
  br label %24, !llvm.loop !92

66:                                               ; preds = %24
  call void @llvm.lifetime.end.p0(i64 8, ptr %8) #7
  call void @llvm.lifetime.end.p0(i64 8, ptr %7) #7
  call void @llvm.lifetime.end.p0(i64 8, ptr %6) #7
  call void @llvm.lifetime.end.p0(i64 8, ptr %5) #7
  call void @llvm.lifetime.end.p0(i64 8, ptr %4) #7
  call void @llvm.lifetime.end.p0(i64 8, ptr %3) #7
  ret ptr @_Py_NoneStruct
}

; Function Attrs: nounwind uwtable
define internal ptr @deque_reverse(ptr noundef %0, ptr noundef %1) #0 {
  %3 = alloca ptr, align 8
  %4 = alloca ptr, align 8
  %5 = alloca ptr, align 8
  store ptr %0, ptr %3, align 8, !tbaa !4
  store ptr %1, ptr %4, align 8, !tbaa !4
  call void @llvm.lifetime.start.p0(i64 8, ptr %5) #7
  store ptr null, ptr %5, align 8, !tbaa !4
  %6 = load ptr, ptr %3, align 8, !tbaa !4
  %7 = call ptr @deque_reverse_impl(ptr noundef %6)
  store ptr %7, ptr %5, align 8, !tbaa !4
  %8 = load ptr, ptr %5, align 8, !tbaa !4
  call void @llvm.lifetime.end.p0(i64 8, ptr %5) #7
  ret ptr %8
}