; Function Attrs: nofree norecurse nosync nounwind memory(readwrite, inaccessiblemem: none) uwtable
define internal noundef nonnull ptr @deque_reverse(ptr noundef readonly captures(none) %0, ptr readnone captures(none) %1) #5 {
  %3 = getelementptr i8, ptr %0, i64 16
  %.val.i = load i64, ptr %3, align 8, !tbaa !52
  %4 = ashr i64 %.val.i, 1
  %5 = icmp sgt i64 %4, 0
  br i1 %5, label %.lr.ph.preheader.i, label %deque_reverse_impl.exit

.lr.ph.preheader.i:                               ; preds = %2
  %6 = getelementptr inbounds nuw i8, ptr %0, i64 48
  %7 = load i64, ptr %6, align 8, !tbaa !50
  %8 = getelementptr inbounds nuw i8, ptr %0, i64 40
  %9 = load i64, ptr %8, align 8, !tbaa !46
  %10 = getelementptr inbounds nuw i8, ptr %0, i64 32
  %11 = load ptr, ptr %10, align 8, !tbaa !47
  %12 = getelementptr inbounds nuw i8, ptr %0, i64 24
  %13 = load ptr, ptr %12, align 8, !tbaa !39
  br label %.lr.ph.i

.lr.ph.i:                                         ; preds = %31, %.lr.ph.preheader.i
  %.in.i = phi i64 [ %14, %31 ], [ %4, %.lr.ph.preheader.i ]
  %.033.i = phi ptr [ %.1.i, %31 ], [ %13, %.lr.ph.preheader.i ]
  %.02132.i = phi i64 [ %.122.i, %31 ], [ %7, %.lr.ph.preheader.i ]
  %.02331.i = phi i64 [ %.124.i, %31 ], [ %9, %.lr.ph.preheader.i ]
  %.02530.i = phi ptr [ %.126.i, %31 ], [ %11, %.lr.ph.preheader.i ]
  %14 = add nsw i64 %.in.i, -1
  %15 = getelementptr inbounds nuw i8, ptr %.033.i, i64 8
  %16 = getelementptr [64 x ptr], ptr %15, i64 0, i64 %.02331.i
  %17 = load ptr, ptr %16, align 8, !tbaa !21
  %18 = getelementptr inbounds nuw i8, ptr %.02530.i, i64 8
  %19 = getelementptr [64 x ptr], ptr %18, i64 0, i64 %.02132.i
  %20 = load ptr, ptr %19, align 8, !tbaa !21
  store ptr %20, ptr %16, align 8, !tbaa !21
  store ptr %17, ptr %19, align 8, !tbaa !21
  %21 = add i64 %.02331.i, 1
  %22 = icmp eq i64 %21, 64
  br i1 %22, label %23, label %26

23:                                               ; preds = %.lr.ph.i
  %24 = getelementptr inbounds nuw i8, ptr %.033.i, i64 520
  %25 = load ptr, ptr %24, align 8, !tbaa !54
  br label %26

26:                                               ; preds = %23, %.lr.ph.i
  %.124.i = phi i64 [ 0, %23 ], [ %21, %.lr.ph.i ]
  %.1.i = phi ptr [ %25, %23 ], [ %.033.i, %.lr.ph.i ]
  %27 = add i64 %.02132.i, -1
  %28 = icmp slt i64 %27, 0
  br i1 %28, label %29, label %31

29:                                               ; preds = %26
  %30 = load ptr, ptr %.02530.i, align 8, !tbaa !56
  br label %31

31:                                               ; preds = %29, %26
  %.126.i = phi ptr [ %30, %29 ], [ %.02530.i, %26 ]
  %.122.i = phi i64 [ 63, %29 ], [ %27, %26 ]
  %32 = icmp samesign ugt i64 %.in.i, 1
  br i1 %32, label %.lr.ph.i, label %deque_reverse_impl.exit, !llvm.loop !85

deque_reverse_impl.exit:                          ; preds = %31, %2
  ret ptr @_Py_NoneStruct
}